target datalayout = "e-m:e-p270:32:32-p271:32:32-p272:64:64-i64:64-i128:128-f80:128-n8:16:32:64-S128"
target triple = "x86_64-pc-linux-gnu"

%struct.Pdr_Man_t_ = type { ptr, ptr, ptr, ptr, ptr, ptr, ptr, ptr, %struct.Vec_Ptr_t_, ptr, i32, i32, ptr, ptr, ptr, ptr, ptr, ptr, i32, i32, ptr, ptr, ptr, i32, i32, ptr, ptr, ptr, ptr, ptr, ptr, ptr, ptr, ptr, ptr, ptr, ptr, ptr, ptr, i32, i32, i32, i32, i32, i32, i32, i32, i32, i32, i32, i32, i32, i32, i32, i32, i32, i64, i64, i64, i64, i64, i64, i64, i64, i64, i64, i64, i64 }
%struct.Vec_Ptr_t_ = type { i32, i32, ptr }
%struct.Aig_Man_t_ = type { ptr, ptr, ptr, ptr, ptr, ptr, ptr, %struct.Aig_Obj_t_, i32, i32, i32, i32, i32, i32, [7 x i32], i32, ptr, i32, ptr, i32, ptr, i32, i32, i32, ptr, i32, i32, i32, i32, i32, ptr, ptr, i32, ptr, ptr, i32, ptr, ptr, i32, i32, i32, ptr, ptr, ptr, ptr, ptr, ptr, ptr, ptr, ptr, ptr, ptr, ptr, ptr, ptr, i32, ptr, ptr, ptr, ptr, i32, i64, i64, i64, ptr, ptr }
%struct.Aig_Obj_t_ = type { %union.anon, ptr, ptr, i64, i32, i32, %union.anon.0 }
%union.anon = type { ptr }
%union.anon.0 = type { ptr }
%struct.Pdr_Obl_t_ = type { i32, i32, i32, ptr, ptr, ptr }
%struct.Abc_Cex_t_ = type { i32, i32, i32, i32, i32, [0 x i32] }
%struct.Pdr_Set_t_ = type { i64, i32, i32, i32, [0 x i32] }

@.str.14 = private unnamed_addr constant [33 x i8] c"CEX for output %d is not valid.\0A\00", align 1

; Function Attrs: inlinehint nounwind uwtable
define internal void @Abc_InfoSetBit(ptr noundef %0, i32 noundef %1) #3 {
  %3 = alloca ptr, align 8
  %4 = alloca i32, align 4
  store ptr %0, ptr %3, align 8, !tbaa !62
  store i32 %1, ptr %4, align 4, !tbaa !8
  %5 = load i32, ptr %4, align 4, !tbaa !8
  %6 = and i32 %5, 31
  %7 = shl i32 1, %6
  %8 = load ptr, ptr %3, align 8, !tbaa !62
  %9 = load i32, ptr %4, align 4, !tbaa !8
  %10 = ashr i32 %9, 5
  %11 = sext i32 %10 to i64
  %12 = getelementptr inbounds i32, ptr %8, i64 %11
  %13 = load i32, ptr %12, align 4, !tbaa !8
  %14 = or i32 %13, %7
  store i32 %14, ptr %12, align 4, !tbaa !8
  ret void
}

; Function Attrs: inlinehint nounwind uwtable
define internal i32 @Abc_Lit2Var(i32 noundef %0) #3 {
  %2 = alloca i32, align 4
  store i32 %0, ptr %2, align 4, !tbaa !8
  %3 = load i32, ptr %2, align 4, !tbaa !8
  %4 = ashr i32 %3, 1
  ret i32 %4
}

; Function Attrs: inlinehint nounwind uwtable
define internal i32 @Abc_LitIsCompl(i32 noundef %0) #3 {
  %2 = alloca i32, align 4
  store i32 %0, ptr %2, align 4, !tbaa !8
  %3 = load i32, ptr %2, align 4, !tbaa !8
  %4 = and i32 %3, 1
  ret i32 %4
}

; Function Attrs: inlinehint nounwind uwtable
define internal i32 @Saig_ManPiNum(ptr noundef %0) #3 {
  %2 = alloca ptr, align 8
  store ptr %0, ptr %2, align 8, !tbaa !64
  %3 = load ptr, ptr %2, align 8, !tbaa !64
  %4 = getelementptr inbounds nuw %struct.Aig_Man_t_, ptr %3, i32 0, i32 9
  %5 = load i32, ptr %4, align 4, !tbaa !192
  ret i32 %5
}

; Function Attrs: inlinehint nounwind uwtable
define internal i32 @Aig_ManRegNum(ptr noundef %0) #3 {
  %2 = alloca ptr, align 8
  store ptr %0, ptr %2, align 8, !tbaa !64
  %3 = load ptr, ptr %2, align 8, !tbaa !64
  %4 = getelementptr inbounds nuw %struct.Aig_Man_t_, ptr %3, i32 0, i32 8
  %5 = load i32, ptr %4, align 8, !tbaa !128
  ret i32 %5
}

; Function Attrs: nounwind uwtable
define ptr @Pdr_ManDeriveCex(ptr noundef %0) #0 {
  %2 = alloca ptr, align 8
  %3 = alloca ptr, align 8
  %4 = alloca ptr, align 8
  %5 = alloca i32, align 4
  %6 = alloca i32, align 4
  %7 = alloca i32, align 4
  %8 = alloca i32, align 4
  store ptr %0, ptr %2, align 8, !tbaa !68
  call void @llvm.lifetime.start.p0(i64 8, ptr %3) #11
  call void @llvm.lifetime.start.p0(i64 8, ptr %4) #11
  call void @llvm.lifetime.start.p0(i64 4, ptr %5) #11
  call void @llvm.lifetime.start.p0(i64 4, ptr %6) #11
  call void @llvm.lifetime.start.p0(i64 4, ptr %7) #11
  call void @llvm.lifetime.start.p0(i64 4, ptr %8) #11
  store i32 0, ptr %8, align 4, !tbaa !8
  %9 = load ptr, ptr %2, align 8, !tbaa !68
  %10 = getelementptr inbounds nuw %struct.Pdr_Man_t_, ptr %9, i32 0, i32 15
  %11 = load ptr, ptr %10, align 8, !tbaa !86
  store ptr %11, ptr %4, align 8, !tbaa !175
  br label %12

12:                                               ; preds = %18, %1
  %13 = load ptr, ptr %4, align 8, !tbaa !175
  %14 = icmp ne ptr %13, null
  br i1 %14, label %15, label %22

15:                                               ; preds = %12
  %16 = load i32, ptr %8, align 4, !tbaa !8
  %17 = add nsw i32 %16, 1
  store i32 %17, ptr %8, align 4, !tbaa !8
  br label %18

18:                                               ; preds = %15
  %19 = load ptr, ptr %4, align 8, !tbaa !175
  %20 = getelementptr inbounds nuw %struct.Pdr_Obl_t_, ptr %19, i32 0, i32 4
  %21 = load ptr, ptr %20, align 8, !tbaa !176
  store ptr %21, ptr %4, align 8, !tbaa !175
  br label %12, !llvm.loop !178

22:                                               ; preds = %12
  %23 = load ptr, ptr %2, align 8, !tbaa !68
  %24 = getelementptr inbounds nuw %struct.Pdr_Man_t_, ptr %23, i32 0, i32 1
  %25 = load ptr, ptr %24, align 8, !tbaa !78
  %26 = call i32 @Aig_ManRegNum(ptr noundef %25)
  %27 = load ptr, ptr %2, align 8, !tbaa !68
  %28 = getelementptr inbounds nuw %struct.Pdr_Man_t_, ptr %27, i32 0, i32 1
  %29 = load ptr, ptr %28, align 8, !tbaa !78
  %30 = call i32 @Saig_ManPiNum(ptr noundef %29)
  %31 = load i32, ptr %8, align 4, !tbaa !8
  %32 = call ptr @Abc_CexAlloc(i32 noundef %26, i32 noundef %30, i32 noundef %31)
  store ptr %32, ptr %3, align 8, !tbaa !179
  %33 = load ptr, ptr %2, align 8, !tbaa !68
  %34 = getelementptr inbounds nuw %struct.Pdr_Man_t_, ptr %33, i32 0, i32 10
  %35 = load i32, ptr %34, align 8, !tbaa !180
  %36 = load ptr, ptr %3, align 8, !tbaa !179
  %37 = getelementptr inbounds nuw %struct.Abc_Cex_t_, ptr %36, i32 0, i32 0
  store i32 %35, ptr %37, align 4, !tbaa !181
  %38 = load i32, ptr %8, align 4, !tbaa !8
  %39 = sub nsw i32 %38, 1
  %40 = load ptr, ptr %3, align 8, !tbaa !179
  %41 = getelementptr inbounds nuw %struct.Abc_Cex_t_, ptr %40, i32 0, i32 1
  store i32 %39, ptr %41, align 4, !tbaa !183
  %42 = load ptr, ptr %2, align 8, !tbaa !68
  %43 = getelementptr inbounds nuw %struct.Pdr_Man_t_, ptr %42, i32 0, i32 15
  %44 = load ptr, ptr %43, align 8, !tbaa !86
  store ptr %44, ptr %4, align 8, !tbaa !175
  store i32 0, ptr %6, align 4, !tbaa !8
  br label %45

45:                                               ; preds = %103, %22
  %46 = load ptr, ptr %4, align 8, !tbaa !175
  %47 = icmp ne ptr %46, null
  br i1 %47, label %48, label %109

48:                                               ; preds = %45
  %49 = load ptr, ptr %4, align 8, !tbaa !175
  %50 = getelementptr inbounds nuw %struct.Pdr_Obl_t_, ptr %49, i32 0, i32 3
  %51 = load ptr, ptr %50, align 8, !tbaa !184
  %52 = getelementptr inbounds nuw %struct.Pdr_Set_t_, ptr %51, i32 0, i32 3
  %53 = load i32, ptr %52, align 8, !tbaa !185
  store i32 %53, ptr %5, align 4, !tbaa !8
  br label %54

54:                                               ; preds = %99, %48
  %55 = load i32, ptr %5, align 4, !tbaa !8
  %56 = load ptr, ptr %4, align 8, !tbaa !175
  %57 = getelementptr inbounds nuw %struct.Pdr_Obl_t_, ptr %56, i32 0, i32 3
  %58 = load ptr, ptr %57, align 8, !tbaa !184
  %59 = getelementptr inbounds nuw %struct.Pdr_Set_t_, ptr %58, i32 0, i32 2
  %60 = load i32, ptr %59, align 4, !tbaa !187
  %61 = icmp slt i32 %55, %60
  br i1 %61, label %62, label %102

62:                                               ; preds = %54
  %63 = load ptr, ptr %4, align 8, !tbaa !175
  %64 = getelementptr inbounds nuw %struct.Pdr_Obl_t_, ptr %63, i32 0, i32 3
  %65 = load ptr, ptr %64, align 8, !tbaa !184
  %66 = getelementptr inbounds nuw %struct.Pdr_Set_t_, ptr %65, i32 0, i32 4
  %67 = load i32, ptr %5, align 4, !tbaa !8
  %68 = sext i32 %67 to i64
  %69 = getelementptr inbounds [0 x i32], ptr %66, i64 0, i64 %68
  %70 = load i32, ptr %69, align 4, !tbaa !8
  store i32 %70, ptr %7, align 4, !tbaa !8
  %71 = load i32, ptr %7, align 4, !tbaa !8
  %72 = call i32 @Abc_LitIsCompl(i32 noundef %71)
  %73 = icmp ne i32 %72, 0
  br i1 %73, label %74, label %75

74:                                               ; preds = %62
  br label %99

75:                                               ; preds = %62
  %76 = load i32, ptr %7, align 4, !tbaa !8
  %77 = call i32 @Abc_Lit2Var(i32 noundef %76)
  %78 = load ptr, ptr %3, align 8, !tbaa !179
  %79 = getelementptr inbounds nuw %struct.Abc_Cex_t_, ptr %78, i32 0, i32 3
  %80 = load i32, ptr %79, align 4, !tbaa !188
  %81 = icmp sge i32 %77, %80
  br i1 %81, label %82, label %83

82:                                               ; preds = %75
  br label %99

83:                                               ; preds = %75
  %84 = load ptr, ptr %3, align 8, !tbaa !179
  %85 = getelementptr inbounds nuw %struct.Abc_Cex_t_, ptr %84, i32 0, i32 5
  %86 = getelementptr inbounds [0 x i32], ptr %85, i64 0, i64 0
  %87 = load ptr, ptr %3, align 8, !tbaa !179
  %88 = getelementptr inbounds nuw %struct.Abc_Cex_t_, ptr %87, i32 0, i32 2
  %89 = load i32, ptr %88, align 4, !tbaa !189
  %90 = load i32, ptr %6, align 4, !tbaa !8
  %91 = load ptr, ptr %3, align 8, !tbaa !179
  %92 = getelementptr inbounds nuw %struct.Abc_Cex_t_, ptr %91, i32 0, i32 3
  %93 = load i32, ptr %92, align 4, !tbaa !188
  %94 = mul nsw i32 %90, %93
  %95 = add nsw i32 %89, %94
  %96 = load i32, ptr %7, align 4, !tbaa !8
  %97 = call i32 @Abc_Lit2Var(i32 noundef %96)
  %98 = add nsw i32 %95, %97
  call void @Abc_InfoSetBit(ptr noundef %86, i32 noundef %98)
  br label %99

99:                                               ; preds = %83, %82, %74
  %100 = load i32, ptr %5, align 4, !tbaa !8
  %101 = add nsw i32 %100, 1
  store i32 %101, ptr %5, align 4, !tbaa !8
  br label %54, !llvm.loop !190

102:                                              ; preds = %54
  br label %103

103:                                              ; preds = %102
  %104 = load ptr, ptr %4, align 8, !tbaa !175
  %105 = getelementptr inbounds nuw %struct.Pdr_Obl_t_, ptr %104, i32 0, i32 4
  %106 = load ptr, ptr %105, align 8, !tbaa !176
  store ptr %106, ptr %4, align 8, !tbaa !175
  %107 = load i32, ptr %6, align 4, !tbaa !8
  %108 = add nsw i32 %107, 1
  store i32 %108, ptr %6, align 4, !tbaa !8
  br label %45, !llvm.loop !191

109:                                              ; preds = %45
  %110 = load ptr, ptr %2, align 8, !tbaa !68
  %111 = getelementptr inbounds nuw %struct.Pdr_Man_t_, ptr %110, i32 0, i32 1
  %112 = load ptr, ptr %111, align 8, !tbaa !78
  %113 = load ptr, ptr %3, align 8, !tbaa !179
  %114 = call i32 @Saig_ManVerifyCex(ptr noundef %112, ptr noundef %113)
  %115 = icmp ne i32 %114, 0
  br i1 %115, label %121, label %116

116:                                              ; preds = %109
  %117 = load ptr, ptr %2, align 8, !tbaa !68
  %118 = getelementptr inbounds nuw %struct.Pdr_Man_t_, ptr %117, i32 0, i32 10
  %119 = load i32, ptr %118, align 8, !tbaa !180
  %120 = call i32 (ptr, ...) @printf(ptr noundef @.str.14, i32 noundef %119)
  br label %121

121:                                              ; preds = %116, %109
  %122 = load ptr, ptr %3, align 8, !tbaa !179
  call void @llvm.lifetime.end.p0(i64 4, ptr %8) #11
  call void @llvm.lifetime.end.p0(i64 4, ptr %7) #11
  call void @llvm.lifetime.end.p0(i64 4, ptr %6) #11
  call void @llvm.lifetime.end.p0(i64 4, ptr %5) #11
  call void @llvm.lifetime.end.p0(i64 8, ptr %4) #11
  call void @llvm.lifetime.end.p0(i64 8, ptr %3) #11
  ret ptr %122
}