; Function Attrs: nounwind uwtable
define noundef ptr @Pdr_ManDeriveCex(ptr noundef readonly captures(none) %0) local_unnamed_addr #0 {
  %2 = getelementptr inbounds nuw i8, ptr %0, i64 120
  %.03241 = load ptr, ptr %2, align 8, !tbaa !152
  %.not42 = icmp eq ptr %.03241, null
  br i1 %.not42, label %._crit_edge, label %.lr.ph

.lr.ph:                                           ; preds = %1, %.lr.ph
  %.03244 = phi ptr [ %.032, %.lr.ph ], [ %.03241, %1 ]
  %.043 = phi i32 [ %3, %.lr.ph ], [ 0, %1 ]
  %3 = add nuw nsw i32 %.043, 1
  %4 = getelementptr inbounds nuw i8, ptr %.03244, i64 24
  %.032 = load ptr, ptr %4, align 8, !tbaa !152
  %.not = icmp eq ptr %.032, null
  br i1 %.not, label %._crit_edge, label %.lr.ph, !llvm.loop !153

._crit_edge:                                      ; preds = %.lr.ph, %1
  %.0.lcssa = phi i32 [ 0, %1 ], [ %3, %.lr.ph ]
  %5 = getelementptr inbounds nuw i8, ptr %0, i64 8
  %6 = load ptr, ptr %5, align 8, !tbaa !64
  %7 = getelementptr i8, ptr %6, i64 104
  %.val = load i32, ptr %7, align 8, !tbaa !72
  %8 = getelementptr i8, ptr %6, i64 108
  %.val40 = load i32, ptr %8, align 4, !tbaa !154
  %9 = tail call ptr @Abc_CexAlloc(i32 noundef %.val, i32 noundef %.val40, i32 noundef %.0.lcssa) #13
  %10 = getelementptr inbounds nuw i8, ptr %0, i64 88
  %11 = load i32, ptr %10, align 8, !tbaa !155
  store i32 %11, ptr %9, align 4, !tbaa !156
  %12 = add nsw i32 %.0.lcssa, -1
  %13 = getelementptr inbounds nuw i8, ptr %9, i64 4
  store i32 %12, ptr %13, align 4, !tbaa !158
  %.149 = load ptr, ptr %2, align 8, !tbaa !152
  %.not3650 = icmp eq ptr %.149, null
  br i1 %.not3650, label %._crit_edge55, label %.lr.ph54

.lr.ph54:                                         ; preds = %._crit_edge
  %14 = getelementptr inbounds nuw i8, ptr %9, i64 12
  %15 = getelementptr inbounds nuw i8, ptr %9, i64 20
  %16 = getelementptr inbounds nuw i8, ptr %9, i64 8
  br label %17

17:                                               ; preds = %.lr.ph54, %._crit_edge48
  %.152 = phi ptr [ %.149, %.lr.ph54 ], [ %.1, %._crit_edge48 ]
  %.03351 = phi i32 [ 0, %.lr.ph54 ], [ %52, %._crit_edge48 ]
  %18 = getelementptr inbounds nuw i8, ptr %.152, i64 16
  %19 = load ptr, ptr %18, align 8, !tbaa !159
  %20 = getelementptr inbounds nuw i8, ptr %19, i64 16
  %21 = load i32, ptr %20, align 8, !tbaa !162
  %22 = getelementptr inbounds nuw i8, ptr %19, i64 12
  %23 = load i32, ptr %22, align 4, !tbaa !164
  %24 = icmp slt i32 %21, %23
  br i1 %24, label %.lr.ph47, label %._crit_edge48

.lr.ph47:                                         ; preds = %17
  %25 = getelementptr inbounds nuw i8, ptr %19, i64 20
  %26 = sext i32 %21 to i64
  br label %27

27:                                               ; preds = %.lr.ph47, %47
  %28 = phi i32 [ %23, %.lr.ph47 ], [ %48, %47 ]
  %indvars.iv = phi i64 [ %26, %.lr.ph47 ], [ %indvars.iv.next, %47 ]
  %29 = getelementptr inbounds [0 x i32], ptr %25, i64 0, i64 %indvars.iv
  %30 = load i32, ptr %29, align 4, !tbaa !33
  %31 = and i32 %30, 1
  %.not38 = icmp eq i32 %31, 0
  br i1 %.not38, label %32, label %47

32:                                               ; preds = %27
  %33 = ashr exact i32 %30, 1
  %34 = load i32, ptr %14, align 4, !tbaa !165
  %.not39 = icmp slt i32 %33, %34
  br i1 %.not39, label %35, label %47

35:                                               ; preds = %32
  %36 = load i32, ptr %16, align 4, !tbaa !166
  %37 = mul nsw i32 %34, %.03351
  %38 = add i32 %37, %33
  %39 = add i32 %38, %36
  %40 = and i32 %39, 31
  %41 = shl nuw i32 1, %40
  %42 = ashr i32 %39, 5
  %43 = sext i32 %42 to i64
  %44 = getelementptr inbounds i32, ptr %15, i64 %43
  %45 = load i32, ptr %44, align 4, !tbaa !33
  %46 = or i32 %41, %45
  store i32 %46, ptr %44, align 4, !tbaa !33
  %.pre = load i32, ptr %22, align 4, !tbaa !164
  br label %47

47:                                               ; preds = %32, %27, %35
  %48 = phi i32 [ %28, %32 ], [ %28, %27 ], [ %.pre, %35 ]
  %indvars.iv.next = add nsw i64 %indvars.iv, 1
  %49 = sext i32 %48 to i64
  %50 = icmp slt i64 %indvars.iv.next, %49
  br i1 %50, label %27, label %._crit_edge48, !llvm.loop !167

._crit_edge48:                                    ; preds = %47, %17
  %51 = getelementptr inbounds nuw i8, ptr %.152, i64 24
  %52 = add nuw nsw i32 %.03351, 1
  %.1 = load ptr, ptr %51, align 8, !tbaa !152
  %.not36 = icmp eq ptr %.1, null
  br i1 %.not36, label %._crit_edge55, label %17, !llvm.loop !168

._crit_edge55:                                    ; preds = %._crit_edge48, %._crit_edge
  %53 = load ptr, ptr %5, align 8, !tbaa !64
  %54 = tail call i32 @Saig_ManVerifyCex(ptr noundef %53, ptr noundef nonnull %9) #13
  %.not37 = icmp eq i32 %54, 0
  br i1 %.not37, label %55, label %58

55:                                               ; preds = %._crit_edge55
  %56 = load i32, ptr %10, align 8, !tbaa !155
  %57 = tail call i32 (ptr, ...) @printf(ptr noundef nonnull dereferenceable(1) @.str.14, i32 noundef %56)
  br label %58

58:                                               ; preds = %55, %._crit_edge55
  ret ptr %9
}